; Function Attrs: mustprogress uwtable
define void @_ZN2cv3reg9MapProjecC2ERKNS_11_InputArrayE(ptr noundef nonnull align 8 dereferenceable(80) %0, ptr noundef nonnull align 8 dereferenceable(24) %1) unnamed_addr #2 align 2 personality ptr @__gxx_personality_v0 {
  %3 = alloca %"class.cv::Mat", align 8
  store ptr getelementptr inbounds inrange(-16, 56) (i8, ptr @_ZTVN2cv3reg9MapProjecE, i64 16), ptr %0, align 8
  %4 = invoke noundef i32 @_ZNK2cv11_InputArray4kindEv(ptr noundef nonnull align 8 dereferenceable(24) %1)
          to label %.noexc unwind label %12

.noexc:                                           ; preds = %2
  %5 = icmp eq i32 %4, 65536
  br i1 %5, label %6, label %9

6:                                                ; preds = %.noexc
  %7 = getelementptr inbounds i8, ptr %1, i64 8
  %8 = load ptr, ptr %7, align 8, !noalias !9
  invoke void @_ZN2cv3MatC1ERKS0_(ptr noundef nonnull align 8 dereferenceable(96) %3, ptr noundef nonnull align 8 dereferenceable(96) %8)
          to label %_ZNK2cv11_InputArray6getMatEi.exit unwind label %12

9:                                                ; preds = %.noexc
  invoke void @_ZNK2cv11_InputArray7getMat_Ei(ptr dead_on_unwind nonnull writable sret(%"class.cv::Mat") align 8 %3, ptr noundef nonnull align 8 dereferenceable(24) %1, i32 noundef -1)
          to label %_ZNK2cv11_InputArray6getMatEi.exit unwind label %12

_ZNK2cv11_InputArray6getMatEi.exit:               ; preds = %6, %9
  %10 = getelementptr inbounds i8, ptr %0, i64 8
  invoke void @_ZNK2cv3MatcvNS_4MatxIT_XT0_EXT1_EEEIdLi3ELi3EEEv(ptr dead_on_unwind nonnull writable sret(%"class.cv::Matx") align 8 %10, ptr noundef nonnull align 8 dereferenceable(96) %3)
          to label %11 unwind label %14

11:                                               ; preds = %_ZNK2cv11_InputArray6getMatEi.exit
  call void @_ZN2cv3MatD1Ev(ptr noundef nonnull align 8 dereferenceable(96) %3) #17
  ret void

12:                                               ; preds = %9, %6, %2
  %13 = landingpad { ptr, i32 }
          cleanup
  br label %16

14:                                               ; preds = %_ZNK2cv11_InputArray6getMatEi.exit
  %15 = landingpad { ptr, i32 }
          cleanup
  call void @_ZN2cv3MatD1Ev(ptr noundef nonnull align 8 dereferenceable(96) %3) #17
  br label %16

16:                                               ; preds = %14, %12
  %.pn = phi { ptr, i32 } [ %15, %14 ], [ %13, %12 ]
  call void @_ZN2cv3reg3MapD2Ev(ptr noundef nonnull align 8 dereferenceable(8) %0) #17
  resume { ptr, i32 } %.pn
}